; Function Attrs: mustprogress nofree norecurse nosync nounwind willreturn memory(read, argmem: readwrite, inaccessiblemem: none) uwtable
define void @_ZN5boost7archive21xml_archive_exceptionC2ERKS1_(ptr nocapture noundef nonnull align 8 dereferenceable(8) %0, ptr nocapture noundef readonly %1, ptr nocapture noundef nonnull readnone align 8 dereferenceable(8) %2) unnamed_addr #3 align 2 {
  %4 = load ptr, ptr %1, align 8
  store ptr %4, ptr %0, align 8, !tbaa !3
  %5 = getelementptr inbounds i8, ptr %1, i64 8
  %6 = load ptr, ptr %5, align 8
  %7 = getelementptr i8, ptr %4, i64 -40
  %8 = load i64, ptr %7, align 8
  %9 = getelementptr inbounds i8, ptr %0, i64 %8
  store ptr %6, ptr %9, align 8, !tbaa !3
  %10 = getelementptr inbounds i8, ptr %1, i64 16
  %11 = load ptr, ptr %10, align 8
  %12 = load ptr, ptr %0, align 8, !tbaa !3
  %13 = getelementptr i8, ptr %12, i64 -48
  %14 = load i64, ptr %13, align 8
  %15 = getelementptr inbounds i8, ptr %0, i64 %14
  store ptr %11, ptr %15, align 8, !tbaa !3
  ret void
}